; Function Attrs: mustprogress nounwind uwtable
define internal fastcc void @_ZN12_GLOBAL__N_111TypePrinter17printBitIntBeforeEPKN5clang10BitIntTypeERN4llvm11raw_ostreamE(ptr nocapture noundef nonnull readonly align 8 dereferenceable(22) %0, ptr nocapture noundef readonly %1, ptr noundef nonnull align 8 dereferenceable(48) %2) unnamed_addr #0 align 2 {
  %4 = getelementptr inbounds nuw i8, ptr %1, i64 32
  %5 = load i32, ptr %4, align 16
  %6 = and i32 %5, 1
  %.not = icmp eq i32 %6, 0
  br i1 %.not, label %_ZN4llvm11raw_ostreamlsEPKc.exit, label %7

7:                                                ; preds = %3
  %8 = getelementptr inbounds nuw i8, ptr %2, i64 24
  %9 = load ptr, ptr %8, align 8
  %10 = getelementptr inbounds nuw i8, ptr %2, i64 32
  %11 = load ptr, ptr %10, align 8
  %12 = ptrtoint ptr %9 to i64
  %13 = ptrtoint ptr %11 to i64
  %14 = sub i64 %12, %13
  %15 = icmp ult i64 %14, 9
  br i1 %15, label %16, label %18

16:                                               ; preds = %7
  %17 = tail call noundef nonnull align 8 dereferenceable(48) ptr @_ZN4llvm11raw_ostream5writeEPKcm(ptr noundef nonnull align 8 dereferenceable(48) %2, ptr noundef nonnull @.str.52, i64 noundef 9) #16
  br label %_ZN4llvm11raw_ostreamlsEPKc.exit

18:                                               ; preds = %7
  tail call void @llvm.memcpy.p0.p0.i64(ptr noundef nonnull align 1 dereferenceable(9) %11, ptr noundef nonnull align 1 dereferenceable(9) @.str.52, i64 9, i1 false)
  %19 = load ptr, ptr %10, align 8
  %20 = getelementptr inbounds i8, ptr %19, i64 9
  store ptr %20, ptr %10, align 8
  br label %_ZN4llvm11raw_ostreamlsEPKc.exit

_ZN4llvm11raw_ostreamlsEPKc.exit:                 ; preds = %18, %16, %3
  %21 = getelementptr inbounds nuw i8, ptr %2, i64 24
  %22 = load ptr, ptr %21, align 8
  %23 = getelementptr inbounds nuw i8, ptr %2, i64 32
  %24 = load ptr, ptr %23, align 8
  %25 = ptrtoint ptr %22 to i64
  %26 = ptrtoint ptr %24 to i64
  %27 = sub i64 %25, %26
  %28 = icmp ult i64 %27, 8
  br i1 %28, label %29, label %31

29:                                               ; preds = %_ZN4llvm11raw_ostreamlsEPKc.exit
  %30 = tail call noundef nonnull align 8 dereferenceable(48) ptr @_ZN4llvm11raw_ostream5writeEPKcm(ptr noundef nonnull align 8 dereferenceable(48) %2, ptr noundef nonnull @.str.53, i64 noundef 8) #16
  br label %_ZN4llvm11raw_ostreamlsEPKc.exit8

31:                                               ; preds = %_ZN4llvm11raw_ostreamlsEPKc.exit
  store i64 2915076120580276831, ptr %24, align 1
  %32 = load ptr, ptr %23, align 8
  %33 = getelementptr inbounds i8, ptr %32, i64 8
  store ptr %33, ptr %23, align 8
  br label %_ZN4llvm11raw_ostreamlsEPKc.exit8

_ZN4llvm11raw_ostreamlsEPKc.exit8:                ; preds = %29, %31
  %.0.i.i7 = phi ptr [ %30, %29 ], [ %2, %31 ]
  %34 = load i32, ptr %4, align 16
  %35 = lshr i32 %34, 1
  %36 = and i32 %35, 16777215
  %37 = zext nneg i32 %36 to i64
  %38 = tail call noundef nonnull align 8 dereferenceable(48) ptr @_ZN4llvm11raw_ostreamlsEm(ptr noundef nonnull align 8 dereferenceable(48) %.0.i.i7, i64 noundef %37) #16
  %39 = getelementptr inbounds nuw i8, ptr %38, i64 24
  %40 = load ptr, ptr %39, align 8
  %41 = getelementptr inbounds nuw i8, ptr %38, i64 32
  %42 = load ptr, ptr %41, align 8
  %43 = icmp eq ptr %40, %42
  br i1 %43, label %44, label %46

44:                                               ; preds = %_ZN4llvm11raw_ostreamlsEPKc.exit8
  %45 = tail call noundef nonnull align 8 dereferenceable(48) ptr @_ZN4llvm11raw_ostream5writeEPKcm(ptr noundef nonnull align 8 dereferenceable(48) %38, ptr noundef nonnull @.str.54, i64 noundef 1) #16
  br label %_ZN4llvm11raw_ostreamlsEPKc.exit11

46:                                               ; preds = %_ZN4llvm11raw_ostreamlsEPKc.exit8
  store i8 41, ptr %42, align 1
  %47 = load ptr, ptr %41, align 8
  %48 = getelementptr inbounds i8, ptr %47, i64 1
  store ptr %48, ptr %41, align 8
  br label %_ZN4llvm11raw_ostreamlsEPKc.exit11

_ZN4llvm11raw_ostreamlsEPKc.exit11:               ; preds = %44, %46
  %49 = getelementptr inbounds i8, ptr %0, i64 20
  %.val = load i8, ptr %49, align 4
  %50 = trunc i8 %.val to i1
  br i1 %50, label %_ZN12_GLOBAL__N_111TypePrinter22spaceBeforePlaceHolderERN4llvm11raw_ostreamE.exit, label %51

51:                                               ; preds = %_ZN4llvm11raw_ostreamlsEPKc.exit11
  %52 = load ptr, ptr %23, align 8
  %53 = load ptr, ptr %21, align 8
  %.not.i.i = icmp ult ptr %52, %53
  br i1 %.not.i.i, label %56, label %54

54:                                               ; preds = %51
  %55 = tail call noundef nonnull align 8 dereferenceable(48) ptr @_ZN4llvm11raw_ostream5writeEh(ptr noundef nonnull align 8 dereferenceable(48) %2, i8 noundef zeroext 32) #16
  br label %_ZN12_GLOBAL__N_111TypePrinter22spaceBeforePlaceHolderERN4llvm11raw_ostreamE.exit

56:                                               ; preds = %51
  %57 = getelementptr inbounds i8, ptr %52, i64 1
  store ptr %57, ptr %23, align 8
  store i8 32, ptr %52, align 1
  br label %_ZN12_GLOBAL__N_111TypePrinter22spaceBeforePlaceHolderERN4llvm11raw_ostreamE.exit

_ZN12_GLOBAL__N_111TypePrinter22spaceBeforePlaceHolderERN4llvm11raw_ostreamE.exit: ; preds = %_ZN4llvm11raw_ostreamlsEPKc.exit11, %54, %56
  ret void
}